; Function Attrs: mustprogress nounwind uwtable
define hidden void @_ZNK8JumpData13print_data_onEP12outputStreamPKc(ptr nocapture noundef nonnull readonly align 8 dereferenceable(16) %0, ptr noundef nonnull %1, ptr noundef %2) unnamed_addr #2 align 2 {
  tail call void @_ZNK11ProfileData12print_sharedEP12outputStreamPKcS3_(ptr noundef nonnull align 8 dereferenceable(16) %0, ptr noundef %1, ptr noundef nonnull @.str.14, ptr noundef %2)
  %4 = getelementptr inbounds i8, ptr %0, i64 8
  %5 = load ptr, ptr %4, align 8
  %6 = getelementptr inbounds i8, ptr %5, i64 8
  %7 = load i64, ptr %6, align 8
  %8 = trunc i64 %7 to i32
  %9 = getelementptr inbounds i8, ptr %5, i64 16
  %10 = load i64, ptr %9, align 8
  %11 = trunc i64 %10 to i32
  tail call void (ptr, ptr, ...) @_ZN12outputStream8print_crEPKcz(ptr noundef nonnull align 8 dereferenceable(56) %1, ptr noundef nonnull @.str.15, i32 noundef %8, i32 noundef %11) #20
  ret void
}